target datalayout = "e-m:e-p270:32:32-p271:32:32-p272:64:64-i64:64-i128:128-f80:128-n8:16:32:64-S128"
target triple = "x86_64-pc-linux-gnu"

%"class.icu_77::UnicodeString" = type { %"class.icu_77::Replaceable", %"union.icu_77::UnicodeString::StackBufferOrFields" }
%"class.icu_77::Replaceable" = type { %"class.icu_77::UObject" }
%"class.icu_77::UObject" = type { ptr }
%"union.icu_77::UnicodeString::StackBufferOrFields" = type { %struct.anon.0, [32 x i8] }
%struct.anon.0 = type { i16, i32, i32, ptr }
%"class.icu_77::CollationDataBuilder" = type { %"class.icu_77::UObject", ptr, ptr, ptr, ptr, %"class.icu_77::UVector32", %"class.icu_77::UVector64", %"class.icu_77::UVector", %"class.icu_77::UnicodeSet", %"class.icu_77::UnicodeString", i32, [4 x i8], %"class.icu_77::UnicodeSet", i8, i8, i8, ptr, ptr }
%"class.icu_77::UVector32" = type { %"class.icu_77::UObject", i32, i32, i32, ptr }
%"class.icu_77::UVector64" = type { %"class.icu_77::UObject", i32, i32, i32, ptr }
%"class.icu_77::UVector" = type { %"class.icu_77::UObject", i32, i32, ptr, ptr, ptr }
%"class.icu_77::UnicodeSet" = type <{ %"class.icu_77::UnicodeFilter", ptr, i32, i32, i8, [7 x i8], ptr, ptr, i32, [4 x i8], ptr, i32, [4 x i8], ptr, ptr, [25 x i32], [4 x i8] }>
%"class.icu_77::UnicodeFilter" = type { %"class.icu_77::UnicodeFunctor", %"class.icu_77::UnicodeMatcher" }
%"class.icu_77::UnicodeFunctor" = type { %"class.icu_77::UObject" }
%"class.icu_77::UnicodeMatcher" = type { ptr }

@_ZN6icu_7728DataBuilderCollationIteratorC1ERNS_20CollationDataBuilderE = unnamed_addr alias void (ptr, ptr), ptr @_ZN6icu_7728DataBuilderCollationIteratorC2ERNS_20CollationDataBuilderE

; Function Attrs: mustprogress uwtable
define noundef i32 @_ZN6icu_7720CollationDataBuilder6getCEsERKNS_13UnicodeStringEiPli(ptr noundef nonnull align 8 dereferenceable(640) %0, ptr noundef nonnull align 8 dereferenceable(64) %1, i32 noundef %2, ptr noundef %3, i32 noundef %4) #4 align 2 personality ptr @__gxx_personality_v0 {
  %6 = alloca i32, align 4
  %7 = alloca ptr, align 8
  %8 = alloca ptr, align 8
  %9 = alloca i32, align 4
  %10 = alloca ptr, align 8
  %11 = alloca i32, align 4
  %12 = alloca ptr, align 8
  %13 = alloca i1, align 1
  %14 = alloca ptr, align 8
  %15 = alloca i32, align 4
  store ptr %0, ptr %7, align 8, !tbaa !13
  store ptr %1, ptr %8, align 8, !tbaa !92
  store i32 %2, ptr %9, align 4, !tbaa !57
  store ptr %3, ptr %10, align 8, !tbaa !93
  store i32 %4, ptr %11, align 4, !tbaa !57
  %16 = load ptr, ptr %7, align 8
  %17 = getelementptr inbounds nuw %"class.icu_77::CollationDataBuilder", ptr %16, i32 0, i32 17
  %18 = load ptr, ptr %17, align 8, !tbaa !136
  %19 = icmp eq ptr %18, null
  br i1 %19, label %20, label %41

20:                                               ; preds = %5
  %21 = call noundef ptr @_ZN6icu_777UMemorynwEm(i64 noundef 832) #11
  %22 = icmp eq ptr %21, null
  store i1 false, ptr %13, align 1
  br i1 %22, label %25, label %23

23:                                               ; preds = %20
  store ptr %21, ptr %12, align 8
  store i1 true, ptr %13, align 1
  invoke void @_ZN6icu_7728DataBuilderCollationIteratorC1ERNS_20CollationDataBuilderE(ptr noundef nonnull align 8 dereferenceable(828) %21, ptr noundef nonnull align 8 dereferenceable(640) %16)
          to label %24 unwind label %32

24:                                               ; preds = %23
  br label %25

25:                                               ; preds = %24, %20
  %26 = phi ptr [ %21, %24 ], [ null, %20 ]
  %27 = getelementptr inbounds nuw %"class.icu_77::CollationDataBuilder", ptr %16, i32 0, i32 17
  store ptr %26, ptr %27, align 8, !tbaa !136
  %28 = getelementptr inbounds nuw %"class.icu_77::CollationDataBuilder", ptr %16, i32 0, i32 17
  %29 = load ptr, ptr %28, align 8, !tbaa !136
  %30 = icmp eq ptr %29, null
  br i1 %30, label %31, label %40

31:                                               ; preds = %25
  store i32 0, ptr %6, align 4
  br label %49

32:                                               ; preds = %23
  %33 = landingpad { ptr, i32 }
          cleanup
  %34 = extractvalue { ptr, i32 } %33, 0
  store ptr %34, ptr %14, align 8
  %35 = extractvalue { ptr, i32 } %33, 1
  store i32 %35, ptr %15, align 4
  %36 = load i1, ptr %13, align 1
  br i1 %36, label %37, label %39

37:                                               ; preds = %32
  %38 = load ptr, ptr %12, align 8
  call void @_ZN6icu_777UMemorydlEPv(ptr noundef %38) #11
  br label %39

39:                                               ; preds = %37, %32
  br label %51

40:                                               ; preds = %25
  br label %41

41:                                               ; preds = %40, %5
  %42 = getelementptr inbounds nuw %"class.icu_77::CollationDataBuilder", ptr %16, i32 0, i32 17
  %43 = load ptr, ptr %42, align 8, !tbaa !136
  %44 = load ptr, ptr %8, align 8, !tbaa !92
  %45 = load i32, ptr %9, align 4, !tbaa !57
  %46 = load ptr, ptr %10, align 8, !tbaa !93
  %47 = load i32, ptr %11, align 4, !tbaa !57
  %48 = call noundef i32 @_ZN6icu_7728DataBuilderCollationIterator8fetchCEsERKNS_13UnicodeStringEiPli(ptr noundef nonnull align 8 dereferenceable(828) %43, ptr noundef nonnull align 8 dereferenceable(64) %44, i32 noundef %45, ptr noundef %46, i32 noundef %47)
  store i32 %48, ptr %6, align 4
  br label %49

49:                                               ; preds = %41, %31
  %50 = load i32, ptr %6, align 4
  ret i32 %50

51:                                               ; preds = %39
  %52 = load ptr, ptr %14, align 8
  %53 = load i32, ptr %15, align 4
  %54 = insertvalue { ptr, i32 } poison, ptr %52, 0
  %55 = insertvalue { ptr, i32 } %54, i32 %53, 1
  resume { ptr, i32 } %55
}

; Function Attrs: mustprogress uwtable
define noundef i32 @_ZN6icu_7720CollationDataBuilder6getCEsERKNS_13UnicodeStringEPli(ptr noundef nonnull align 8 dereferenceable(640) %0, ptr noundef nonnull align 8 dereferenceable(64) %1, ptr noundef %2, i32 noundef %3) #4 align 2 {
  %5 = alloca ptr, align 8
  %6 = alloca ptr, align 8
  %7 = alloca ptr, align 8
  %8 = alloca i32, align 4
  store ptr %0, ptr %5, align 8, !tbaa !13
  store ptr %1, ptr %6, align 8, !tbaa !92
  store ptr %2, ptr %7, align 8, !tbaa !93
  store i32 %3, ptr %8, align 4, !tbaa !57
  %9 = load ptr, ptr %5, align 8
  %10 = load ptr, ptr %6, align 8, !tbaa !92
  %11 = load ptr, ptr %7, align 8, !tbaa !93
  %12 = load i32, ptr %8, align 4, !tbaa !57
  %13 = call noundef i32 @_ZN6icu_7720CollationDataBuilder6getCEsERKNS_13UnicodeStringEiPli(ptr noundef nonnull align 8 dereferenceable(640) %9, ptr noundef nonnull align 8 dereferenceable(64) %10, i32 noundef 0, ptr noundef %11, i32 noundef %12)
  ret i32 %13
}