; Function Attrs: mustprogress uwtable
define noundef i32 @_ZN6icu_7720CollationDataBuilder6getCEsERKNS_13UnicodeStringEPli(ptr noundef nonnull align 8 dereferenceable(640) %0, ptr noundef nonnull align 8 dereferenceable(64) %1, ptr noundef writeonly captures(none) %2, i32 noundef %3) local_unnamed_addr #6 align 2 personality ptr @__gxx_personality_v0 {
  %5 = getelementptr inbounds nuw i8, ptr %0, i64 632
  %6 = load ptr, ptr %5, align 8, !tbaa !122
  %7 = icmp eq ptr %6, null
  br i1 %7, label %8, label %15

8:                                                ; preds = %4
  %9 = tail call noundef ptr @_ZN6icu_777UMemorynwEm(i64 noundef 832) #19
  %10 = icmp eq ptr %9, null
  br i1 %10, label %.thread.i, label %11

.thread.i:                                        ; preds = %8
  store ptr null, ptr %5, align 8, !tbaa !122
  br label %_ZN6icu_7720CollationDataBuilder6getCEsERKNS_13UnicodeStringEiPli.exit

11:                                               ; preds = %8
  invoke void @_ZN6icu_7728DataBuilderCollationIteratorC1ERNS_20CollationDataBuilderE(ptr noundef nonnull align 8 dereferenceable(828) %9, ptr noundef nonnull align 8 dereferenceable(640) %0)
          to label %12 unwind label %13

12:                                               ; preds = %11
  store ptr %9, ptr %5, align 8, !tbaa !122
  br label %15

13:                                               ; preds = %11
  %14 = landingpad { ptr, i32 }
          cleanup
  tail call void @_ZN6icu_777UMemorydlEPv(ptr noundef nonnull %9) #19
  resume { ptr, i32 } %14

15:                                               ; preds = %12, %4
  %16 = phi ptr [ %9, %12 ], [ %6, %4 ]
  %17 = tail call noundef i32 @_ZN6icu_7728DataBuilderCollationIterator8fetchCEsERKNS_13UnicodeStringEiPli(ptr noundef nonnull align 8 dereferenceable(828) %16, ptr noundef nonnull align 8 dereferenceable(64) %1, i32 noundef 0, ptr noundef %2, i32 noundef %3)
  br label %_ZN6icu_7720CollationDataBuilder6getCEsERKNS_13UnicodeStringEiPli.exit

_ZN6icu_7720CollationDataBuilder6getCEsERKNS_13UnicodeStringEiPli.exit: ; preds = %.thread.i, %15
  %.0.i = phi i32 [ %17, %15 ], [ 0, %.thread.i ]
  ret i32 %.0.i
}